; Function Attrs: nounwind uwtable
define ptr @EVP_PKEY_get0_provider(ptr noundef readonly captures(none) %0) local_unnamed_addr #0 {
  %2 = getelementptr inbounds nuw i8, ptr %0, i64 96
  %3 = load ptr, ptr %2, align 8, !tbaa !30
  %.not = icmp eq ptr %3, null
  br i1 %.not, label %6, label %4

4:                                                ; preds = %1
  %5 = tail call ptr @EVP_KEYMGMT_get0_provider(ptr noundef nonnull %3) #3
  br label %6

6:                                                ; preds = %1, %4
  %.0 = phi ptr [ %5, %4 ], [ null, %1 ]
  ret ptr %.0
}